; ModuleID = '16/466.c'
source_filename = "16/466.c"
target datalayout = "e-m:e-p270:32:32-p271:32:32-p272:64:64-i64:64-f80:128-n8:16:32:64-S128"
target triple = "x86_64-pc-linux-gnu"

@.str = private unnamed_addr constant [3 x i8] c"%d\00", align 1
@.str.1 = private unnamed_addr constant [4 x i8] c"%d\0A\00", align 1
@.str.2 = private unnamed_addr constant [6 x i8] c"%d%d\0A\00", align 1
@.str.3 = private unnamed_addr constant [8 x i8] c"%d%d%d\0A\00", align 1
@.str.4 = private unnamed_addr constant [10 x i8] c"%d%d%d%d\0A\00", align 1
@.str.5 = private unnamed_addr constant [12 x i8] c"%d%d%d%d%d\0A\00", align 1

; Function Attrs: noinline nounwind uwtable
define dso_local i32 @main() #0 {
  %1 = alloca i32, align 4
  %2 = alloca i32, align 4
  %3 = alloca i32, align 4
  %4 = alloca i32, align 4
  %5 = alloca i32, align 4
  %6 = alloca i32, align 4
  %7 = alloca i32, align 4
  store i32 0, i32* %1, align 4
  %8 = call i32 (i8*, ...) @__isoc99_scanf(i8* getelementptr inbounds ([3 x i8], [3 x i8]* @.str, i64 0, i64 0), i32* %2)
  %9 = load i32, i32* %2, align 4
  store i32 %9, i32* %7, align 4
  %10 = load i32, i32* %2, align 4
  %11 = sdiv i32 %10, 10000
  store i32 %11, i32* %3, align 4
  %12 = load i32, i32* %2, align 4
  %13 = srem i32 %12, 10000
  store i32 %13, i32* %2, align 4
  %14 = load i32, i32* %2, align 4
  %15 = sdiv i32 %14, 1000
  store i32 %15, i32* %4, align 4
  %16 = load i32, i32* %2, align 4
  %17 = srem i32 %16, 1000
  store i32 %17, i32* %2, align 4
  %18 = load i32, i32* %2, align 4
  %19 = sdiv i32 %18, 100
  store i32 %19, i32* %5, align 4
  %20 = load i32, i32* %2, align 4
  %21 = srem i32 %20, 100
  store i32 %21, i32* %2, align 4
  %22 = load i32, i32* %2, align 4
  %23 = sdiv i32 %22, 10
  store i32 %23, i32* %6, align 4
  %24 = load i32, i32* %2, align 4
  %25 = srem i32 %24, 10
  store i32 %25, i32* %2, align 4
  %26 = load i32, i32* %7, align 4
  %27 = icmp slt i32 %26, 10
  br i1 %27, label %28, label %31

28:                                               ; preds = %0
  %29 = load i32, i32* %2, align 4
  %30 = call i32 (i8*, ...) @printf(i8* getelementptr inbounds ([4 x i8], [4 x i8]* @.str.1, i64 0, i64 0), i32 %29)
  br label %65

31:                                               ; preds = %0
  %32 = load i32, i32* %7, align 4
  %33 = icmp slt i32 %32, 100
  br i1 %33, label %34, label %38

34:                                               ; preds = %31
  %35 = load i32, i32* %2, align 4
  %36 = load i32, i32* %6, align 4
  %37 = call i32 (i8*, ...) @printf(i8* getelementptr inbounds ([6 x i8], [6 x i8]* @.str.2, i64 0, i64 0), i32 %35, i32 %36)
  br label %64

38:                                               ; preds = %31
  %39 = load i32, i32* %7, align 4
  %40 = icmp slt i32 %39, 1000
  br i1 %40, label %41, label %46

41:                                               ; preds = %38
  %42 = load i32, i32* %2, align 4
  %43 = load i32, i32* %6, align 4
  %44 = load i32, i32* %5, align 4
  %45 = call i32 (i8*, ...) @printf(i8* getelementptr inbounds ([8 x i8], [8 x i8]* @.str.3, i64 0, i64 0), i32 %42, i32 %43, i32 %44)
  br label %63

46:                                               ; preds = %38
  %47 = load i32, i32* %7, align 4
  %48 = icmp slt i32 %47, 10000
  br i1 %48, label %49, label %55

49:                                               ; preds = %46
  %50 = load i32, i32* %2, align 4
  %51 = load i32, i32* %6, align 4
  %52 = load i32, i32* %5, align 4
  %53 = load i32, i32* %4, align 4
  %54 = call i32 (i8*, ...) @printf(i8* getelementptr inbounds ([10 x i8], [10 x i8]* @.str.4, i64 0, i64 0), i32 %50, i32 %51, i32 %52, i32 %53)
  br label %62

55:                                               ; preds = %46
  %56 = load i32, i32* %2, align 4
  %57 = load i32, i32* %6, align 4
  %58 = load i32, i32* %5, align 4
  %59 = load i32, i32* %4, align 4
  %60 = load i32, i32* %3, align 4
  %61 = call i32 (i8*, ...) @printf(i8* getelementptr inbounds ([12 x i8], [12 x i8]* @.str.5, i64 0, i64 0), i32 %56, i32 %57, i32 %58, i32 %59, i32 %60)
  br label %62

62:                                               ; preds = %55, %49
  br label %63

63:                                               ; preds = %62, %41
  br label %64

64:                                               ; preds = %63, %34
  br label %65

65:                                               ; preds = %64, %28
  ret i32 0
}

declare dso_local i32 @__isoc99_scanf(i8*, ...) #1

declare dso_local i32 @printf(i8*, ...) #1


!llvm.module.flags = !{!0}
!llvm.ident = !{!1}

!0 = !{i32 1, !"wchar_size", i32 4}
!1 = !{!"clang version 10.0.0-4ubuntu1 "}
