; ModuleID = 'source-C-CXX/15/466.c'
source_filename = "source-C-CXX/15/466.c"
target datalayout = "e-m:e-p270:32:32-p271:32:32-p272:64:64-i64:64-f80:128-n8:16:32:64-S128"
target triple = "x86_64-pc-linux-gnu"

@.str = private unnamed_addr constant [3 x i8] c"%d\00", align 1
@.str.1 = private unnamed_addr constant [4 x i8] c"%d\0A\00", align 1
@.str.2 = private unnamed_addr constant [6 x i8] c"%d%d\0A\00", align 1
@.str.3 = private unnamed_addr constant [8 x i8] c"%d%d%d\0A\00", align 1
@.str.4 = private unnamed_addr constant [10 x i8] c"%d%d%d%d\0A\00", align 1
@.str.5 = private unnamed_addr constant [12 x i8] c"%d%d%d%d%d\0A\00", align 1

; Function Attrs: nofree nounwind sspstrong uwtable
define dso_local i32 @main() local_unnamed_addr #0 {
  %1 = alloca i32, align 4
  %2 = bitcast i32* %1 to i8*
  call void @llvm.lifetime.start.p0i8(i64 4, i8* nonnull %2) #3
  %3 = call i32 (i8*, ...) @__isoc99_scanf(i8* getelementptr inbounds ([3 x i8], [3 x i8]* @.str, i64 0, i64 0), i32* nonnull %1)
  %4 = load i32, i32* %1, align 4, !tbaa !5
  %5 = sdiv i32 %4, 10000
  %6 = srem i32 %4, 10000
  %7 = trunc i32 %6 to i16
  %8 = sdiv i16 %7, 1000
  %9 = sext i16 %8 to i32
  %10 = srem i16 %7, 1000
  %11 = sdiv i16 %10, 100
  %12 = sext i16 %11 to i32
  %13 = srem i16 %10, 100
  %14 = trunc i16 %13 to i8
  %15 = sdiv i8 %14, 10
  %16 = sext i8 %15 to i32
  %17 = srem i8 %14, 10
  %18 = sext i8 %17 to i32
  store i32 %18, i32* %1, align 4, !tbaa !5
  %19 = icmp slt i32 %4, 10
  br i1 %19, label %20, label %22

20:                                               ; preds = %0
  %21 = call i32 (i8*, ...) @printf(i8* nonnull dereferenceable(1) getelementptr inbounds ([4 x i8], [4 x i8]* @.str.1, i64 0, i64 0), i32 %18)
  br label %36

22:                                               ; preds = %0
  %23 = icmp slt i32 %4, 100
  br i1 %23, label %24, label %26

24:                                               ; preds = %22
  %25 = call i32 (i8*, ...) @printf(i8* nonnull dereferenceable(1) getelementptr inbounds ([6 x i8], [6 x i8]* @.str.2, i64 0, i64 0), i32 %18, i32 %16)
  br label %36

26:                                               ; preds = %22
  %27 = icmp slt i32 %4, 1000
  br i1 %27, label %28, label %30

28:                                               ; preds = %26
  %29 = call i32 (i8*, ...) @printf(i8* nonnull dereferenceable(1) getelementptr inbounds ([8 x i8], [8 x i8]* @.str.3, i64 0, i64 0), i32 %18, i32 %16, i32 %12)
  br label %36

30:                                               ; preds = %26
  %31 = icmp slt i32 %4, 10000
  br i1 %31, label %32, label %34

32:                                               ; preds = %30
  %33 = call i32 (i8*, ...) @printf(i8* nonnull dereferenceable(1) getelementptr inbounds ([10 x i8], [10 x i8]* @.str.4, i64 0, i64 0), i32 %18, i32 %16, i32 %12, i32 %9)
  br label %36

34:                                               ; preds = %30
  %35 = call i32 (i8*, ...) @printf(i8* nonnull dereferenceable(1) getelementptr inbounds ([12 x i8], [12 x i8]* @.str.5, i64 0, i64 0), i32 %18, i32 %16, i32 %12, i32 %9, i32 %5)
  br label %36

36:                                               ; preds = %24, %32, %34, %28, %20
  call void @llvm.lifetime.end.p0i8(i64 4, i8* nonnull %2) #3
  ret i32 0
}

; Function Attrs: argmemonly mustprogress nofree nosync nounwind willreturn
declare void @llvm.lifetime.start.p0i8(i64 immarg, i8* nocapture) #1

; Function Attrs: nofree nounwind
declare noundef i32 @__isoc99_scanf(i8* nocapture noundef readonly, ...) local_unnamed_addr #2

; Function Attrs: nofree nounwind
declare noundef i32 @printf(i8* nocapture noundef readonly, ...) local_unnamed_addr #2

; Function Attrs: argmemonly mustprogress nofree nosync nounwind willreturn
declare void @llvm.lifetime.end.p0i8(i64 immarg, i8* nocapture) #1


!llvm.module.flags = !{!0, !1, !2, !3}
!llvm.ident = !{!4}

!0 = !{i32 1, !"wchar_size", i32 4}
!1 = !{i32 7, !"PIC Level", i32 2}
!2 = !{i32 7, !"PIE Level", i32 2}
!3 = !{i32 7, !"uwtable", i32 1}
!4 = !{!"clang version 13.0.0"}
!5 = !{!6, !6, i64 0}
!6 = !{!"int", !7, i64 0}
!7 = !{!"omnipotent char", !8, i64 0}
!8 = !{!"Simple C/C++ TBAA"}
